; Function Attrs: cold nounwind optsize uwtable
define internal fastcc void @mpv_encode_defaults(ptr noundef %0) unnamed_addr #6 {
  tail call void @ff_mpv_common_defaults(ptr noundef %0) #16
  %2 = getelementptr inbounds nuw i8, ptr %0, i64 6304
  store i32 1, ptr %2, align 8, !tbaa !223
  %3 = getelementptr inbounds nuw i8, ptr %0, i64 6308
  store i32 1, ptr %3, align 4, !tbaa !224
  %4 = getelementptr inbounds nuw i8, ptr %0, i64 7488
  %5 = load ptr, ptr %4, align 8, !tbaa !225
  %.not = icmp eq ptr %5, null
  br i1 %.not, label %6, label %8

6:                                                ; preds = %1
  store ptr getelementptr inbounds nuw (i8, ptr @default_fcode_tab, i64 4096), ptr %4, align 8, !tbaa !225
  %7 = tail call i32 @pthread_once(ptr noundef nonnull @mpv_encode_defaults.init_static_once, ptr noundef nonnull @mpv_encode_init_static) #16
  br label %8

8:                                                ; preds = %6, %1
  %9 = getelementptr inbounds nuw i8, ptr %0, i64 1328
  %10 = load ptr, ptr %9, align 8, !tbaa !180
  %.not9 = icmp eq ptr %10, null
  br i1 %.not9, label %11, label %13

11:                                               ; preds = %8
  %12 = getelementptr inbounds nuw i8, ptr %0, i64 1336
  store ptr @ff_mpeg12_dc_scale_table, ptr %12, align 8, !tbaa !179
  store ptr @ff_mpeg12_dc_scale_table, ptr %9, align 8, !tbaa !180
  br label %13

13:                                               ; preds = %11, %8
  ret void
}